; Function Attrs: nounwind uwtable
define ptr @l_Array_foldlMUnsafe_fold___at_Lean_LocalContext_foldl___spec__13___rarg(ptr noundef %0, ptr noundef readonly captures(none) %1, i64 noundef %2, i64 noundef %3, ptr noundef %4) local_unnamed_addr #2 {
  %.not50 = icmp eq i64 %2, %3
  br i1 %.not50, label %.._crit_edge_crit_edge, label %.lr.ph

.._crit_edge_crit_edge:                           ; preds = %5
  %.pre = ptrtoint ptr %0 to i64
  %.pre53 = and i64 %.pre, 1
  br label %._crit_edge

.lr.ph:                                           ; preds = %5
  %6 = getelementptr inbounds nuw i8, ptr %1, i64 24
  %7 = ptrtoint ptr %0 to i64
  %8 = and i64 %7, 1
  %.not49 = icmp eq i64 %8, 0
  br label %9

9:                                                ; preds = %.lr.ph, %lean_dec.exit
  %.02152 = phi i64 [ %2, %.lr.ph ], [ %26, %lean_dec.exit ]
  %.02551 = phi ptr [ %4, %.lr.ph ], [ %.227, %lean_dec.exit ]
  %10 = getelementptr inbounds nuw [0 x ptr], ptr %6, i64 0, i64 %.02152
  %11 = load ptr, ptr %10, align 8, !tbaa !9
  %12 = ptrtoint ptr %11 to i64
  %13 = and i64 %12, 1
  %.not.i32 = icmp eq i64 %13, 0
  br i1 %.not.i32, label %14, label %20

14:                                               ; preds = %9
  %.val.i.i = load i32, ptr %11, align 4, !tbaa !4
  %15 = icmp sgt i32 %.val.i.i, 0
  br i1 %15, label %16, label %18, !prof !11

16:                                               ; preds = %14
  %17 = add nuw i32 %.val.i.i, 1
  store i32 %17, ptr %11, align 4, !tbaa !4
  br label %23

18:                                               ; preds = %14
  %.not.i.i = icmp eq i32 %.val.i.i, 0
  br i1 %.not.i.i, label %23, label %19

19:                                               ; preds = %18
  tail call void @lean_inc_ref_cold(ptr noundef nonnull %11) #8
  br label %23

20:                                               ; preds = %9
  %21 = lshr i64 %12, 1
  %22 = trunc i64 %21 to i32
  br label %lean_obj_tag.exit

23:                                               ; preds = %16, %18, %19
  %24 = getelementptr i8, ptr %11, i64 4
  %.val.i = load i32, ptr %24, align 4
  %25 = lshr i32 %.val.i, 24
  br label %lean_obj_tag.exit

lean_obj_tag.exit:                                ; preds = %20, %23
  %.0.i = phi i32 [ %22, %20 ], [ %25, %23 ]
  %26 = add i64 %.02152, 1
  %27 = icmp eq i32 %.0.i, 0
  br i1 %27, label %lean_dec.exit, label %28

28:                                               ; preds = %lean_obj_tag.exit
  %29 = getelementptr inbounds nuw i8, ptr %11, i64 8
  %30 = load ptr, ptr %29, align 8, !tbaa !9
  %31 = ptrtoint ptr %30 to i64
  %32 = and i64 %31, 1
  %.not47 = icmp eq i64 %32, 0
  br i1 %.not47, label %33, label %lean_inc.exit29

33:                                               ; preds = %28
  %.val.i34 = load i32, ptr %30, align 4, !tbaa !4
  %34 = icmp sgt i32 %.val.i34, 0
  br i1 %34, label %35, label %37, !prof !11

35:                                               ; preds = %33
  %36 = add nuw i32 %.val.i34, 1
  store i32 %36, ptr %30, align 4, !tbaa !4
  br label %lean_inc.exit29

37:                                               ; preds = %33
  %.not.i35 = icmp eq i32 %.val.i34, 0
  br i1 %.not.i35, label %lean_inc.exit29, label %38

38:                                               ; preds = %37
  tail call void @lean_inc_ref_cold(ptr noundef nonnull %30) #8
  br label %lean_inc.exit29

lean_inc.exit29:                                  ; preds = %38, %37, %35, %28
  br i1 %.not.i32, label %39, label %lean_dec.exit28

39:                                               ; preds = %lean_inc.exit29
  %40 = load i32, ptr %11, align 4, !tbaa !4
  %41 = icmp sgt i32 %40, 1
  br i1 %41, label %42, label %44, !prof !11

42:                                               ; preds = %39
  %43 = add nsw i32 %40, -1
  store i32 %43, ptr %11, align 4, !tbaa !4
  br label %lean_dec.exit28

44:                                               ; preds = %39
  %.not.i = icmp eq i32 %40, 0
  br i1 %.not.i, label %lean_dec.exit28, label %45

45:                                               ; preds = %44
  tail call void @lean_dec_ref_cold(ptr noundef nonnull %11) #8
  br label %lean_dec.exit28

lean_dec.exit28:                                  ; preds = %45, %44, %42, %lean_inc.exit29
  br i1 %.not49, label %46, label %lean_inc.exit

46:                                               ; preds = %lean_dec.exit28
  %.val.i36 = load i32, ptr %0, align 4, !tbaa !4
  %47 = icmp sgt i32 %.val.i36, 0
  br i1 %47, label %48, label %50, !prof !11

48:                                               ; preds = %46
  %49 = add nuw i32 %.val.i36, 1
  store i32 %49, ptr %0, align 4, !tbaa !4
  br label %lean_inc.exit

50:                                               ; preds = %46
  %.not.i37 = icmp eq i32 %.val.i36, 0
  br i1 %.not.i37, label %lean_inc.exit, label %51

51:                                               ; preds = %50
  tail call void @lean_inc_ref_cold(ptr noundef nonnull %0) #8
  br label %lean_inc.exit

lean_inc.exit:                                    ; preds = %51, %50, %48, %lean_dec.exit28
  %52 = tail call ptr @lean_apply_2(ptr noundef %0, ptr noundef %.02551, ptr noundef %30) #8
  br label %lean_dec.exit

._crit_edge:                                      ; preds = %lean_dec.exit, %.._crit_edge_crit_edge
  %.pre-phi54 = phi i64 [ %.pre53, %.._crit_edge_crit_edge ], [ %8, %lean_dec.exit ]
  %.025.lcssa = phi ptr [ %4, %.._crit_edge_crit_edge ], [ %.227, %lean_dec.exit ]
  %.not46 = icmp eq i64 %.pre-phi54, 0
  br i1 %.not46, label %53, label %60

53:                                               ; preds = %._crit_edge
  %54 = load i32, ptr %0, align 4, !tbaa !4
  %55 = icmp sgt i32 %54, 1
  br i1 %55, label %56, label %58, !prof !11

56:                                               ; preds = %53
  %57 = add nsw i32 %54, -1
  store i32 %57, ptr %0, align 4, !tbaa !4
  br label %60

58:                                               ; preds = %53
  %.not.i30 = icmp eq i32 %54, 0
  br i1 %.not.i30, label %60, label %59

59:                                               ; preds = %58
  tail call void @lean_dec_ref_cold(ptr noundef nonnull %0) #8
  br label %60

lean_dec.exit:                                    ; preds = %lean_inc.exit, %lean_obj_tag.exit
  %.227 = phi ptr [ %52, %lean_inc.exit ], [ %.02551, %lean_obj_tag.exit ]
  %.not = icmp eq i64 %26, %3
  br i1 %.not, label %._crit_edge, label %9

60:                                               ; preds = %59, %58, %56, %._crit_edge
  ret ptr %.025.lcssa
}